Certificate:
    Data:
        Version: 3 (0x2)
        Serial Number: 1 (0x1)
    Signature Algorithm: sha256WithRSAEncryption
        Issuer: C=DE, O=python-ldap, OU=slapd-test, CN=Python LDAP Test CA
        Validity
            Not Before: Dec  2 11:57:47 2017 GMT
            Not After : Sep  4 11:57:47 2027 GMT
        Subject: C=DE, O=python-ldap, OU=slapd-test, CN=Python LDAP Test CA
        Subject Public Key Info:
            Public Key Algorithm: rsaEncryption
                Public-Key: (2048 bit)
                Modulus:
                    00:af:1f:cf:0f:c5:95:66:2d:eb:85:cc:21:fc:0d:
                    0f:44:d8:2f:a8:85:08:ef:60:67:57:fa:0b:c5:e4:
                    b3:fb:f1:6f:cb:30:7a:47:0d:a7:f1:b5:37:81:5f:
                    f6:39:28:e2:f9:4d:6c:2e:a6:5c:0e:3c:db:4d:c9:
                    2a:64:ce:0d:15:30:c7:75:52:b8:74:c5:0b:00:4c:
                    2f:94:1b:dd:fb:83:2c:58:02:73:b0:86:3a:6a:aa:
                    55:f2:d5:49:99:17:a5:e2:44:ec:dd:62:5f:8d:ce:
                    77:29:0b:8d:87:23:e2:4b:d6:1c:25:f3:06:a9:ee:
                    33:6f:ac:ed:22:9e:35:ec:55:e7:1b:38:68:7e:46:
                    e3:c3:42:ac:06:0b:0a:7a:84:c9:3d:ef:3d:a5:6e:
                    e9:10:24:c3:28:fe:1f:4a:9a:23:8a:3c:db:0a:66:
                    5d:07:f8:c5:17:68:53:e4:0e:37:33:c4:d2:ad:58:
                    62:6b:8a:87:ab:73:eb:bc:2b:ac:07:69:84:8d:e3:
                    c4:a9:78:9b:6c:1e:03:63:df:b4:96:18:bd:3c:2e:
                    be:7f:2c:d5:a8:f8:12:b9:ab:27:52:b0:de:38:62:
                    3c:54:a7:f3:aa:37:a3:11:12:b2:a7:6f:8d:96:10:
                    ce:01:cb:25:24:a6:51:18:93:69:9b:9e:5c:8a:ff:
                    fe:89
                Exponent: 65537 (0x10001)
        X509v3 extensions:
            X509v3 Basic Constraints: critical
                CA:TRUE
            X509v3 Key Usage: critical
                Certificate Sign, CRL Sign
            X509v3 Subject Key Identifier: 
                3B:1F:32:F4:FE:57:D1:6F:49:91:55:F2:24:F1:0A:66:3B:A5:EE:D4
            X509v3 Authority Key Identifier: 
                keyid:3B:1F:32:F4:FE:57:D1:6F:49:91:55:F2:24:F1:0A:66:3B:A5:EE:D4

    Signature Algorithm: sha256WithRSAEncryption
         0a:e7:dc:38:ce:03:dd:a8:99:11:d0:24:be:ef:1a:18:9d:7c:
         95:75:4a:4a:29:44:23:28:fc:66:d5:81:ce:05:c2:c0:6b:71:
         d6:8d:33:a9:53:a6:1c:f1:4e:50:ae:a3:b1:72:d6:69:53:ad:
         a9:62:a9:45:27:68:17:35:41:97:ec:e9:65:91:62:12:ed:eb:
         45:3a:9b:cc:09:bc:e3:ad:22:6b:13:6b:b0:67:ef:ce:01:83:
         5e:6c:95:e2:b3:73:b9:69:9a:33:49:f9:5f:52:4e:39:94:c9:
         db:93:6f:d8:ba:10:92:ce:fa:12:6b:bc:31:ff:c1:67:70:63:
         07:dc:53:7a:3a:a3:51:20:15:44:cf:1c:a9:cd:b7:30:1d:8e:
         55:93:8a:56:8c:3d:e9:8b:ae:0c:77:8d:5c:8b:fd:22:d8:4c:
         3e:e4:76:e8:d9:e8:c3:98:f4:98:ff:02:60:95:8e:3e:26:7a:
         e2:fe:2c:0a:a4:52:8d:4c:3d:dd:4c:fd:2f:2c:db:83:4c:2b:
         25:24:37:78:9a:07:27:52:f9:1c:c0:65:65:cb:50:77:b4:2d:
         fa:f4:af:bb:42:1c:43:65:c6:01:6e:f1:4b:fe:b8:4a:3c:29:
         8b:b6:84:1e:17:99:61:98:65:fe:f2:e9:ce:bb:ac:87:69:cb:
         e6:13:42:bf
-----BEGIN CERTIFICATE-----
MIIDijCCAnKgAwIBAgIBATANBgkqhkiG9w0BAQsFADBWMQswCQYDVQQGEwJERTEU
MBIGA1UECgwLcHl0aG9uLWxkYXAxEzARBgNVBAsMCnNsYXBkLXRlc3QxHDAaBgNV
BAMME1B5dGhvbiBMREFQIFRlc3QgQ0EwHhcNMTcxMjAyMTE1NzQ3WhcNMjcwOTA0
MTE1NzQ3WjBWMQswCQYDVQQGEwJERTEUMBIGA1UECgwLcHl0aG9uLWxkYXAxEzAR
BgNVBAsMCnNsYXBkLXRlc3QxHDAaBgNVBAMME1B5dGhvbiBMREFQIFRlc3QgQ0Ew
ggEiMA0GCSqGSIb3DQEBAQUAA4IBDwAwggEKAoIBAQCvH88PxZVmLeuFzCH8DQ9E
2C+ohQjvYGdX+gvF5LP78W/LMHpHDafxtTeBX/Y5KOL5TWwuplwOPNtNySpkzg0V
MMd1Urh0xQsATC+UG937gyxYAnOwhjpqqlXy1UmZF6XiROzdYl+NzncpC42HI+JL
1hwl8wap7jNvrO0injXsVecbOGh+RuPDQqwGCwp6hMk97z2lbukQJMMo/h9KmiOK
PNsKZl0H+MUXaFPkDjczxNKtWGJrioerc+u8K6wHaYSN48SpeJtsHgNj37SWGL08
Lr5/LNWo+BK5qydSsN44YjxUp/OqN6MRErKnb42WEM4ByyUkplEYk2mbnlyK//6J
AgMBAAGjYzBhMA8GA1UdEwEB/wQFMAMBAf8wDgYDVR0PAQH/BAQDAgEGMB0GA1Ud
DgQWBBQ7HzL0/lfRb0mRVfIk8QpmO6Xu1DAfBgNVHSMEGDAWgBQ7HzL0/lfRb0mR
VfIk8QpmO6Xu1DANBgkqhkiG9w0BAQsFAAOCAQEACufcOM4D3aiZEdAkvu8aGJ18
lXVKSilEIyj8ZtWBzgXCwGtx1o0zqVOmHPFOUK6jsXLWaVOtqWKpRSdoFzVBl+zp
ZZFiEu3rRTqbzAm8460iaxNrsGfvzgGDXmyV4rNzuWmaM0n5X1JOOZTJ25Nv2LoQ
ks76Emu8Mf/BZ3BjB9xTejqjUSAVRM8cqc23MB2OVZOKVow96YuuDHeNXIv9IthM
PuR26Nnow5j0mP8CYJWOPiZ64v4sCqRSjUw93Uz9Lyzbg0wrJSQ3eJoHJ1L5HMBl
ZctQd7Qt+vSvu0IcQ2XGAW7xS/64Sjwpi7aEHheZYZhl/vLpzrush2nL5hNCvw==
-----END CERTIFICATE-----
