Certificate:
    Data:
        Version: 3 (0x2)
        Serial Number: 3 (0x3)
    Signature Algorithm: sha256WithRSAEncryption
        Issuer: C=DE, O=python-ldap, OU=slapd-test, CN=Python LDAP Test CA
        Validity
            Not Before: Dec  2 11:57:48 2017 GMT
            Not After : Dec  2 11:57:48 2027 GMT
        Subject: C=DE, O=python-ldap, OU=slapd-test, CN=client
        Subject Public Key Info:
            Public Key Algorithm: rsaEncryption
                Public-Key: (2048 bit)
                Modulus:
                    00:c6:c6:f6:cc:11:b6:a1:56:22:b8:3f:a6:a8:59:
                    49:1c:88:87:f5:74:46:13:06:e5:3c:33:57:92:85:
                    11:14:67:76:2d:ab:f7:9e:e3:6e:69:5d:1c:b1:c4:
                    3a:c0:6b:cc:a0:46:3a:ac:ee:d6:ae:c2:18:00:28:
                    db:8f:44:6c:b0:ee:1c:99:d4:ab:b8:bd:03:9b:c1:
                    7f:6b:cf:21:d0:e8:58:fa:d3:a5:38:1c:76:d8:7c:
                    05:5b:d0:01:7b:3b:32:db:84:d1:f7:8a:c0:91:b4:
                    d7:26:11:44:98:1b:53:64:7e:7f:73:42:45:78:a7:
                    3d:8a:24:ce:1e:3e:de:06:c8:62:55:d0:d8:51:51:
                    d1:dd:c2:0b:16:8a:e4:6d:d8:42:11:3f:02:d7:76:
                    47:ff:e2:cb:e6:d8:46:a1:00:96:b1:f9:23:1a:65:
                    87:bf:96:0f:70:f5:20:71:97:a0:d3:68:5f:65:16:
                    9a:0f:ab:37:96:f8:a9:d7:0a:61:3c:7b:ea:92:59:
                    e6:bc:12:39:33:21:15:da:e0:a2:7f:12:75:0c:3f:
                    67:d4:2f:e2:5e:d9:a8:06:17:66:1f:08:87:7d:62:
                    f2:d3:41:5f:18:0e:fe:c8:9b:54:a9:d2:c6:c8:50:
                    3a:16:5f:5e:06:0d:46:d9:f1:c0:6b:c1:f3:b2:23:
                    44:df
                Exponent: 65537 (0x10001)
        X509v3 extensions:
            X509v3 Basic Constraints: critical
                CA:FALSE
            X509v3 Key Usage: critical
                Digital Signature
            X509v3 Extended Key Usage: critical
                TLS Web Client Authentication
            X509v3 Subject Key Identifier: 
                67:63:38:F4:B4:BC:F3:6B:BC:74:0E:7C:27:C9:BB:C2:CC:58:AC:16
            X509v3 Authority Key Identifier: 
                keyid:3B:1F:32:F4:FE:57:D1:6F:49:91:55:F2:24:F1:0A:66:3B:A5:EE:D4

    Signature Algorithm: sha256WithRSAEncryption
         76:24:42:6b:33:4f:d6:59:07:48:5b:04:9c:3c:d3:3f:63:80:
         75:4d:78:d7:d5:85:b1:77:81:31:a3:91:cb:c9:a3:8c:0e:00:
         28:08:74:71:6c:fc:83:8c:80:ec:1c:e8:ee:83:e0:7f:49:3b:
         f3:42:33:5a:1f:68:0c:a5:41:42:ce:bf:77:29:07:f2:18:a7:
         81:17:d7:76:47:04:d9:8a:dd:e8:5a:26:26:ea:a4:76:70:e1:
         f1:fa:e1:db:bc:f2:24:b2:37:a8:58:2f:e3:66:89:77:02:55:
         87:ef:3c:1f:66:ce:4e:86:b3:4c:57:43:86:7f:4c:ab:5a:33:
         dd:ca:e3:2f:3b:af:b4:43:5a:53:8b:e0:12:da:e7:c0:13:76:
         b2:68:d5:14:f8:1a:07:ce:8a:87:5c:91:bd:35:d7:83:c6:2a:
         a4:e0:92:50:01:b9:c2:fa:69:06:5c:8a:80:ee:9c:24:f9:49:
         64:e3:59:c1:a6:69:29:ce:b7:89:20:a9:7c:d6:9f:df:2a:d1:
         a4:98:2a:6d:7b:93:6a:52:e3:ae:de:1a:d8:f3:2e:cf:02:7e:
         ba:9a:fa:f4:b3:b5:6e:9a:23:10:70:53:53:30:d5:8a:32:35:
         01:52:58:6d:9d:f5:8e:bb:b9:76:bd:41:16:88:26:f8:d3:ce:
         70:03:c8:59
-----BEGIN CERTIFICATE-----
MIIDkjCCAnqgAwIBAgIBAzANBgkqhkiG9w0BAQsFADBWMQswCQYDVQQGEwJERTEU
MBIGA1UECgwLcHl0aG9uLWxkYXAxEzARBgNVBAsMCnNsYXBkLXRlc3QxHDAaBgNV
BAMME1B5dGhvbiBMREFQIFRlc3QgQ0EwHhcNMTcxMjAyMTE1NzQ4WhcNMjcxMjAy
MTE1NzQ4WjBJMQswCQYDVQQGEwJERTEUMBIGA1UECgwLcHl0aG9uLWxkYXAxEzAR
BgNVBAsMCnNsYXBkLXRlc3QxDzANBgNVBAMMBmNsaWVudDCCASIwDQYJKoZIhvcN
AQEBBQADggEPADCCAQoCggEBAMbG9swRtqFWIrg/pqhZSRyIh/V0RhMG5TwzV5KF
ERRndi2r957jbmldHLHEOsBrzKBGOqzu1q7CGAAo249EbLDuHJnUq7i9A5vBf2vP
IdDoWPrTpTgcdth8BVvQAXs7MtuE0feKwJG01yYRRJgbU2R+f3NCRXinPYokzh4+
3gbIYlXQ2FFR0d3CCxaK5G3YQhE/Atd2R//iy+bYRqEAlrH5Ixplh7+WD3D1IHGX
oNNoX2UWmg+rN5b4qdcKYTx76pJZ5rwSOTMhFdrgon8SdQw/Z9Qv4l7ZqAYXZh8I
h31i8tNBXxgO/sibVKnSxshQOhZfXgYNRtnxwGvB87IjRN8CAwEAAaN4MHYwDAYD
VR0TAQH/BAIwADAOBgNVHQ8BAf8EBAMCB4AwFgYDVR0lAQH/BAwwCgYIKwYBBQUH
AwIwHQYDVR0OBBYEFGdjOPS0vPNrvHQOfCfJu8LMWKwWMB8GA1UdIwQYMBaAFDsf
MvT+V9FvSZFV8iTxCmY7pe7UMA0GCSqGSIb3DQEBCwUAA4IBAQB2JEJrM0/WWQdI
WwScPNM/Y4B1TXjX1YWxd4Exo5HLyaOMDgAoCHRxbPyDjIDsHOjug+B/STvzQjNa
H2gMpUFCzr93KQfyGKeBF9d2RwTZit3oWiYm6qR2cOHx+uHbvPIksjeoWC/jZol3
AlWH7zwfZs5OhrNMV0OGf0yrWjPdyuMvO6+0Q1pTi+AS2ufAE3ayaNUU+BoHzoqH
XJG9NdeDxiqk4JJQAbnC+mkGXIqA7pwk+Ulk41nBpmkpzreJIKl81p/fKtGkmCpt
e5NqUuOu3hrY8y7PAn66mvr0s7VumiMQcFNTMNWKMjUBUlhtnfWOu7l2vUEWiCb4
085wA8hZ
-----END CERTIFICATE-----
