Certificate:
    Data:
        Version: 3 (0x2)
        Serial Number: 2 (0x2)
    Signature Algorithm: sha256WithRSAEncryption
        Issuer: C=DE, O=python-ldap, OU=slapd-test, CN=Python LDAP Test CA
        Validity
            Not Before: Dec  2 11:57:48 2017 GMT
            Not After : Dec  2 11:57:48 2027 GMT
        Subject: C=DE, O=python-ldap, OU=slapd-test, CN=server cert for localhost
        Subject Public Key Info:
            Public Key Algorithm: rsaEncryption
                Public-Key: (2048 bit)
                Modulus:
                    00:c0:81:c2:3b:3e:3f:3d:03:0e:2b:ad:bf:8d:f2:
                    3d:ed:d7:29:c9:81:74:61:40:dc:5b:c5:07:10:99:
                    40:a2:f0:0b:69:18:a3:57:bb:e6:8c:f6:ed:87:c5:
                    9e:bb:ec:02:df:86:c1:22:be:d4:00:e5:02:b3:2e:
                    5e:46:d8:6d:88:41:ae:ee:ce:02:1c:a3:bd:ce:2f:
                    f9:0c:64:82:6d:ee:c2:9f:9e:f7:c0:0a:d4:a8:3a:
                    50:f4:23:23:b3:54:41:2e:d0:05:40:ee:13:07:6f:
                    a5:25:23:49:82:35:f7:64:d8:55:85:6d:cd:67:52:
                    62:00:10:18:48:38:36:c5:a0:d5:be:45:ce:a5:cf:
                    de:0d:b1:4a:80:ac:36:b2:bd:6a:40:b1:79:14:6e:
                    e6:d0:8a:4a:62:28:d5:f5:3a:93:8e:0b:d1:94:6c:
                    48:70:23:f1:bd:d1:99:d4:83:d4:93:93:fd:a8:c6:
                    cb:f0:2e:56:1d:3a:11:a1:a7:27:e5:e7:7b:53:bb:
                    b7:8b:30:1a:e2:33:11:65:51:3b:e4:63:51:94:80:
                    f8:f4:7c:0f:e0:89:6b:42:7a:b1:8e:c9:e2:ae:d6:
                    11:65:6d:2e:0b:8d:ba:2b:b1:fa:e5:c9:83:f0:7f:
                    04:e0:dd:82:f8:85:59:ed:f5:f1:74:ae:98:f3:63:
                    59:a5
                Exponent: 65537 (0x10001)
        X509v3 extensions:
            X509v3 Basic Constraints: critical
                CA:FALSE
            X509v3 Key Usage: critical
                Digital Signature, Key Encipherment
            X509v3 Extended Key Usage: critical
                TLS Web Server Authentication
            X509v3 Subject Key Identifier: 
                1B:78:45:40:0D:50:8A:8B:3B:C1:0A:F8:3F:7A:48:7B:A6:3C:28:09
            X509v3 Authority Key Identifier: 
                keyid:3B:1F:32:F4:FE:57:D1:6F:49:91:55:F2:24:F1:0A:66:3B:A5:EE:D4

            X509v3 Subject Alternative Name: 
                DNS:localhost, IP Address:127.0.0.1, IP Address:0:0:0:0:0:0:0:1
    Signature Algorithm: sha256WithRSAEncryption
         ad:08:3f:7d:b1:09:a1:a5:6c:c3:58:80:1d:e5:33:a5:bb:c0:
         33:39:95:aa:88:ee:c4:8e:38:3b:59:a7:0e:39:74:6c:fe:11:
         33:5e:fa:50:cb:20:4b:67:b7:c9:5e:96:a7:9e:d8:47:46:e1:
         ab:fe:5d:8b:9a:2d:1a:1b:43:08:f9:93:0f:2a:e3:ce:83:4a:
         94:cd:02:f0:8e:25:f2:41:0d:55:10:f5:4c:5b:39:8b:77:5e:
         ab:78:16:64:a1:48:d5:e1:f6:69:9a:0f:d8:30:a6:cc:92:4d:
         81:df:46:74:ab:cf:1d:b7:d4:01:b9:6d:d5:f4:14:b8:d5:54:
         84:79:11:42:69:55:7f:74:ce:01:96:2f:3f:51:23:b3:11:fb:
         72:dc:4c:b9:a3:89:ef:31:e4:c0:49:06:fa:8d:09:71:e1:c1:
         74:a9:ed:f8:96:87:67:16:b5:5d:16:5d:59:70:ff:1c:b5:a1:
         6c:d2:22:11:3a:0e:6f:76:9b:69:cb:f3:85:a7:79:ad:53:f5:
         34:e8:87:cc:dd:09:51:25:e0:28:ee:79:a0:a3:dc:0a:dd:f0:
         1b:e3:c9:5f:14:d3:95:f5:12:4d:23:95:45:2c:3c:32:94:ad:
         ce:1e:a0:5f:e6:e8:28:c6:f9:c7:fb:57:06:ad:0b:eb:86:ca:
         0e:d2:a8:67
-----BEGIN CERTIFICATE-----
MIID1TCCAr2gAwIBAgIBAjANBgkqhkiG9w0BAQsFADBWMQswCQYDVQQGEwJERTEU
MBIGA1UECgwLcHl0aG9uLWxkYXAxEzARBgNVBAsMCnNsYXBkLXRlc3QxHDAaBgNV
BAMME1B5dGhvbiBMREFQIFRlc3QgQ0EwHhcNMTcxMjAyMTE1NzQ4WhcNMjcxMjAy
MTE1NzQ4WjBcMQswCQYDVQQGEwJERTEUMBIGA1UECgwLcHl0aG9uLWxkYXAxEzAR
BgNVBAsMCnNsYXBkLXRlc3QxIjAgBgNVBAMMGXNlcnZlciBjZXJ0IGZvciBsb2Nh
bGhvc3QwggEiMA0GCSqGSIb3DQEBAQUAA4IBDwAwggEKAoIBAQDAgcI7Pj89Aw4r
rb+N8j3t1ynJgXRhQNxbxQcQmUCi8AtpGKNXu+aM9u2HxZ677ALfhsEivtQA5QKz
Ll5G2G2IQa7uzgIco73OL/kMZIJt7sKfnvfACtSoOlD0IyOzVEEu0AVA7hMHb6Ul
I0mCNfdk2FWFbc1nUmIAEBhIODbFoNW+Rc6lz94NsUqArDayvWpAsXkUbubQikpi
KNX1OpOOC9GUbEhwI/G90ZnUg9STk/2oxsvwLlYdOhGhpyfl53tTu7eLMBriMxFl
UTvkY1GUgPj0fA/giWtCerGOyeKu1hFlbS4LjborsfrlyYPwfwTg3YL4hVnt9fF0
rpjzY1mlAgMBAAGjgacwgaQwDAYDVR0TAQH/BAIwADAOBgNVHQ8BAf8EBAMCBaAw
FgYDVR0lAQH/BAwwCgYIKwYBBQUHAwEwHQYDVR0OBBYEFBt4RUANUIqLO8EK+D96
SHumPCgJMB8GA1UdIwQYMBaAFDsfMvT+V9FvSZFV8iTxCmY7pe7UMCwGA1UdEQQl
MCOCCWxvY2FsaG9zdIcEfwAAAYcQAAAAAAAAAAAAAAAAAAAAATANBgkqhkiG9w0B
AQsFAAOCAQEArQg/fbEJoaVsw1iAHeUzpbvAMzmVqojuxI44O1mnDjl0bP4RM176
UMsgS2e3yV6Wp57YR0bhq/5di5otGhtDCPmTDyrjzoNKlM0C8I4l8kENVRD1TFs5
i3deq3gWZKFI1eH2aZoP2DCmzJJNgd9GdKvPHbfUAblt1fQUuNVUhHkRQmlVf3TO
AZYvP1EjsxH7ctxMuaOJ7zHkwEkG+o0JceHBdKnt+JaHZxa1XRZdWXD/HLWhbNIi
EToOb3abacvzhad5rVP1NOiHzN0JUSXgKO55oKPcCt3wG+PJXxTTlfUSTSOVRSw8
MpStzh6gX+boKMb5x/tXBq0L64bKDtKoZw==
-----END CERTIFICATE-----
